target datalayout = "e-m:e-p270:32:32-p271:32:32-p272:64:64-i64:64-i128:128-f80:128-n8:16:32:64-S128"
target triple = "x86_64-pc-linux-gnu"

%struct._asn1_ctx_t = type { i32, i32, i8, ptr, ptr, ptr, ptr, ptr, %struct.anon, %struct.anon.2, %struct.anon.3, ptr }
%struct.anon = type { i32, i8, i8, i8, ptr, ptr, i32, i32, ptr, ptr, ptr, %union.anon }
%union.anon = type { %struct.anon.0 }
%struct.anon.0 = type { ptr }
%struct.anon.2 = type { ptr, ptr, ptr }
%struct.anon.3 = type { i32, i8, ptr, i32, i32, ptr, ptr, ptr, %union.anon.4 }
%union.anon.4 = type { %struct.anon.5 }
%struct.anon.5 = type { ptr }
%struct._packet_info = type { ptr, ptr, i32, i32, %struct.nstime_t, %struct.nstime_t, %struct.nstime_t, i8, ptr, ptr, ptr, ptr, %struct._address, %struct._address, %struct._address, %struct._address, %struct._address, %struct._address, i32, ptr, i8, [3 x i8], %struct.anon.7, i32, i32, i32, i32, ptr, i8, ptr, ptr, i16, i16, i32, i32, i16, i32, i32, ptr, ptr, ptr, i8, i8, i16, i16, i16, i32, i16, i16, ptr, ptr, ptr, ptr, ptr, i32, i32 }
%struct.nstime_t = type { i64, i32 }
%struct._address = type { i32, i32, ptr, ptr }
%struct.anon.7 = type { i8, [3 x i8] }
%struct.ngap_private_data = type { ptr, i32, i32, i32, i32, i32, i8, i8, i8, ptr, ptr, i32, i32, i8, ptr }
%struct.ngap_conv_info = type { %struct._address, i32, i32, %struct._address, i32, i32, ptr, ptr }
%struct.ngap_tai = type { i32, i32 }
%struct._wmem_tree_key_t = type { i32, ptr }
%struct._frame_data = type <{ i32, i32, i32, i32, i32, [4 x i8], i64, ptr, ptr, ptr, i8, i16, [5 x i8], %struct.nstime_t, %struct.nstime_t, i32, i32 }>

@proto_ngap = internal global i32 0, align 4
@ett_ngap_TAI = internal global i32 0, align 4

; Function Attrs: null_pointer_is_valid sspstrong uwtable
define internal ptr @ngap_get_private_data(ptr noundef %0) #0 {
  %2 = alloca ptr, align 8
  %3 = alloca ptr, align 8
  store ptr %0, ptr %2, align 8
  call void @llvm.lifetime.start.p0(i64 8, ptr %3) #11
  %4 = load ptr, ptr %2, align 8
  %5 = getelementptr inbounds nuw %struct._packet_info, ptr %4, i32 0, i32 51
  %6 = load ptr, ptr %5, align 8
  %7 = load ptr, ptr %2, align 8
  %8 = load i32, ptr @proto_ngap, align 4
  %9 = call ptr @p_get_proto_data(ptr noundef %6, ptr noundef %7, i32 noundef %8, i32 noundef 0)
  store ptr %9, ptr %3, align 8
  %10 = load ptr, ptr %3, align 8
  %11 = icmp ne ptr %10, null
  br i1 %11, label %27, label %12

12:                                               ; preds = %1
  %13 = load ptr, ptr %2, align 8
  %14 = getelementptr inbounds nuw %struct._packet_info, ptr %13, i32 0, i32 51
  %15 = load ptr, ptr %14, align 8
  %16 = call noalias ptr @wmem_alloc0(ptr noundef %15, i64 noundef 72) #12
  store ptr %16, ptr %3, align 8
  %17 = load ptr, ptr %3, align 8
  %18 = getelementptr inbounds nuw %struct.ngap_private_data, ptr %17, i32 0, i32 5
  store i32 -1, ptr %18, align 8
  %19 = load ptr, ptr %3, align 8
  %20 = getelementptr inbounds nuw %struct.ngap_private_data, ptr %19, i32 0, i32 13
  store i8 -1, ptr %20, align 8
  %21 = load ptr, ptr %2, align 8
  %22 = getelementptr inbounds nuw %struct._packet_info, ptr %21, i32 0, i32 51
  %23 = load ptr, ptr %22, align 8
  %24 = load ptr, ptr %2, align 8
  %25 = load i32, ptr @proto_ngap, align 4
  %26 = load ptr, ptr %3, align 8
  call void @p_add_proto_data(ptr noundef %23, ptr noundef %24, i32 noundef %25, i32 noundef 0, ptr noundef %26)
  br label %27

27:                                               ; preds = %12, %1
  %28 = load ptr, ptr %3, align 8
  call void @llvm.lifetime.end.p0(i64 8, ptr %3) #11
  ret ptr %28
}

; Function Attrs: null_pointer_is_valid sspstrong uwtable
define internal i32 @dissect_ngap_TAI(ptr noundef %0, i32 noundef %1, ptr noundef %2, ptr noundef %3, i32 noundef %4) #0 {
  %6 = alloca ptr, align 8
  %7 = alloca i32, align 4
  %8 = alloca ptr, align 8
  %9 = alloca ptr, align 8
  %10 = alloca i32, align 4
  %11 = alloca ptr, align 8
  %12 = alloca i64, align 8
  %13 = alloca [3 x %struct._wmem_tree_key_t], align 16
  %14 = alloca ptr, align 8
  store ptr %0, ptr %6, align 8
  store i32 %1, ptr %7, align 4
  store ptr %2, ptr %8, align 8
  store ptr %3, ptr %9, align 8
  store i32 %4, ptr %10, align 4
  call void @llvm.lifetime.start.p0(i64 8, ptr %11) #11
  %15 = load ptr, ptr %8, align 8
  %16 = getelementptr inbounds nuw %struct._asn1_ctx_t, ptr %15, i32 0, i32 3
  %17 = load ptr, ptr %16, align 8
  %18 = call ptr @ngap_get_private_data(ptr noundef %17)
  store ptr %18, ptr %11, align 8
  %19 = load ptr, ptr %11, align 8
  %20 = getelementptr inbounds nuw %struct.ngap_private_data, ptr %19, i32 0, i32 12
  store i32 8, ptr %20, align 4
  %21 = load ptr, ptr %8, align 8
  %22 = getelementptr inbounds nuw %struct._asn1_ctx_t, ptr %21, i32 0, i32 3
  %23 = load ptr, ptr %22, align 8
  %24 = getelementptr inbounds nuw %struct._packet_info, ptr %23, i32 0, i32 51
  %25 = load ptr, ptr %24, align 8
  %26 = call noalias ptr @wmem_alloc0(ptr noundef %25, i64 noundef 8) #12
  %27 = load ptr, ptr %11, align 8
  %28 = getelementptr inbounds nuw %struct.ngap_private_data, ptr %27, i32 0, i32 10
  store ptr %26, ptr %28, align 8
  %29 = load ptr, ptr %6, align 8
  %30 = load i32, ptr %7, align 4
  %31 = load ptr, ptr %8, align 8
  %32 = load ptr, ptr %9, align 8
  %33 = load i32, ptr %10, align 4
  %34 = load i32, ptr @ett_ngap_TAI, align 4
  %35 = call i32 @dissect_per_sequence(ptr noundef %29, i32 noundef %30, ptr noundef %31, ptr noundef %32, i32 noundef %33, i32 noundef %34, ptr noundef @TAI_sequence)
  store i32 %35, ptr %7, align 4
  %36 = load ptr, ptr %8, align 8
  %37 = getelementptr inbounds nuw %struct._asn1_ctx_t, ptr %36, i32 0, i32 3
  %38 = load ptr, ptr %37, align 8
  %39 = getelementptr inbounds nuw %struct._packet_info, ptr %38, i32 0, i32 8
  %40 = load ptr, ptr %39, align 8
  %41 = getelementptr inbounds nuw %struct._frame_data, ptr %40, i32 0, i32 11
  %42 = load i16, ptr %41, align 1
  %43 = lshr i16 %42, 3
  %44 = and i16 %43, 1
  %45 = zext i16 %44 to i32
  %46 = icmp ne i32 %45, 0
  br i1 %46, label %115, label %47

47:                                               ; preds = %5
  %48 = load ptr, ptr %11, align 8
  %49 = getelementptr inbounds nuw %struct.ngap_private_data, ptr %48, i32 0, i32 0
  %50 = load ptr, ptr %49, align 8
  %51 = icmp ne ptr %50, null
  br i1 %51, label %52, label %115

52:                                               ; preds = %47
  %53 = load ptr, ptr %11, align 8
  %54 = getelementptr inbounds nuw %struct.ngap_private_data, ptr %53, i32 0, i32 4
  %55 = load i32, ptr %54, align 4
  %56 = icmp eq i32 %55, 0
  br i1 %56, label %57, label %115

57:                                               ; preds = %52
  %58 = load ptr, ptr %11, align 8
  %59 = getelementptr inbounds nuw %struct.ngap_private_data, ptr %58, i32 0, i32 1
  %60 = load i32, ptr %59, align 8
  %61 = icmp eq i32 %60, 15
  br i1 %61, label %62, label %115

62:                                               ; preds = %57
  call void @llvm.lifetime.start.p0(i64 8, ptr %12) #11
  %63 = load ptr, ptr %11, align 8
  %64 = getelementptr inbounds nuw %struct.ngap_private_data, ptr %63, i32 0, i32 10
  %65 = load ptr, ptr %64, align 8
  %66 = getelementptr inbounds nuw %struct.ngap_tai, ptr %65, i32 0, i32 0
  %67 = load i32, ptr %66, align 4
  %68 = shl i32 %67, 24
  %69 = load ptr, ptr %11, align 8
  %70 = getelementptr inbounds nuw %struct.ngap_private_data, ptr %69, i32 0, i32 10
  %71 = load ptr, ptr %70, align 8
  %72 = getelementptr inbounds nuw %struct.ngap_tai, ptr %71, i32 0, i32 1
  %73 = load i32, ptr %72, align 4
  %74 = or i32 %68, %73
  %75 = zext i32 %74 to i64
  store i64 %75, ptr %12, align 8
  %76 = load ptr, ptr %11, align 8
  %77 = getelementptr inbounds nuw %struct.ngap_private_data, ptr %76, i32 0, i32 0
  %78 = load ptr, ptr %77, align 8
  %79 = getelementptr inbounds nuw %struct.ngap_conv_info, ptr %78, i32 0, i32 6
  %80 = load ptr, ptr %79, align 8
  %81 = call ptr @wmem_map_lookup(ptr noundef %80, ptr noundef %12)
  %82 = icmp ne ptr %81, null
  br i1 %82, label %83, label %114

83:                                               ; preds = %62
  call void @llvm.lifetime.start.p0(i64 48, ptr %13) #11
  call void @llvm.lifetime.start.p0(i64 8, ptr %14) #11
  %84 = call ptr @wmem_file_scope()
  %85 = call noalias ptr @wmem_alloc(ptr noundef %84, i64 noundef 4) #12
  store ptr %85, ptr %14, align 8
  %86 = load ptr, ptr %11, align 8
  %87 = getelementptr inbounds nuw %struct.ngap_private_data, ptr %86, i32 0, i32 11
  %88 = load i32, ptr %87, align 8
  %89 = load ptr, ptr %14, align 8
  store i32 %88, ptr %89, align 4
  %90 = getelementptr [3 x %struct._wmem_tree_key_t], ptr %13, i64 0, i64 0
  %91 = getelementptr inbounds nuw %struct._wmem_tree_key_t, ptr %90, i32 0, i32 0
  store i32 1, ptr %91, align 16
  %92 = load ptr, ptr %14, align 8
  %93 = getelementptr [3 x %struct._wmem_tree_key_t], ptr %13, i64 0, i64 0
  %94 = getelementptr inbounds nuw %struct._wmem_tree_key_t, ptr %93, i32 0, i32 1
  store ptr %92, ptr %94, align 8
  %95 = getelementptr [3 x %struct._wmem_tree_key_t], ptr %13, i64 0, i64 1
  %96 = getelementptr inbounds nuw %struct._wmem_tree_key_t, ptr %95, i32 0, i32 0
  store i32 1, ptr %96, align 16
  %97 = load ptr, ptr %8, align 8
  %98 = getelementptr inbounds nuw %struct._asn1_ctx_t, ptr %97, i32 0, i32 3
  %99 = load ptr, ptr %98, align 8
  %100 = getelementptr inbounds nuw %struct._packet_info, ptr %99, i32 0, i32 3
  %101 = getelementptr [3 x %struct._wmem_tree_key_t], ptr %13, i64 0, i64 1
  %102 = getelementptr inbounds nuw %struct._wmem_tree_key_t, ptr %101, i32 0, i32 1
  store ptr %100, ptr %102, align 8
  %103 = getelementptr [3 x %struct._wmem_tree_key_t], ptr %13, i64 0, i64 2
  %104 = getelementptr inbounds nuw %struct._wmem_tree_key_t, ptr %103, i32 0, i32 0
  store i32 0, ptr %104, align 16
  %105 = getelementptr [3 x %struct._wmem_tree_key_t], ptr %13, i64 0, i64 2
  %106 = getelementptr inbounds nuw %struct._wmem_tree_key_t, ptr %105, i32 0, i32 1
  store ptr null, ptr %106, align 8
  %107 = load ptr, ptr %11, align 8
  %108 = getelementptr inbounds nuw %struct.ngap_private_data, ptr %107, i32 0, i32 0
  %109 = load ptr, ptr %108, align 8
  %110 = getelementptr inbounds nuw %struct.ngap_conv_info, ptr %109, i32 0, i32 7
  %111 = load ptr, ptr %110, align 8
  %112 = getelementptr inbounds [3 x %struct._wmem_tree_key_t], ptr %13, i64 0, i64 0
  %113 = load ptr, ptr %14, align 8
  call void @wmem_tree_insert32_array(ptr noundef %111, ptr noundef %112, ptr noundef %113)
  call void @llvm.lifetime.end.p0(i64 8, ptr %14) #11
  call void @llvm.lifetime.end.p0(i64 48, ptr %13) #11
  br label %114

114:                                              ; preds = %83, %62
  call void @llvm.lifetime.end.p0(i64 8, ptr %12) #11
  br label %115

115:                                              ; preds = %114, %57, %52, %47, %5
  %116 = load i32, ptr %7, align 4
  call void @llvm.lifetime.end.p0(i64 8, ptr %11) #11
  ret i32 %116
}