; Function Attrs: null_pointer_is_valid sspstrong uwtable
define internal i32 @dissect_ngap_TAI(ptr noundef %0, i32 noundef %1, ptr noundef %2, ptr noundef %3, i32 noundef %4) #0 {
  %6 = alloca i64, align 8
  %7 = alloca [3 x %struct._wmem_tree_key_t], align 16
  %8 = getelementptr inbounds nuw i8, ptr %2, i64 16
  %9 = load ptr, ptr %8, align 8
  %10 = getelementptr inbounds nuw i8, ptr %9, i64 408
  %11 = load ptr, ptr %10, align 8
  %12 = load i32, ptr @proto_ngap, align 4
  %13 = tail call ptr @p_get_proto_data(ptr noundef %11, ptr noundef %9, i32 noundef %12, i32 noundef 0)
  %.not.i = icmp eq ptr %13, null
  br i1 %.not.i, label %14, label %ngap_get_private_data.exit

14:                                               ; preds = %5
  %15 = load ptr, ptr %10, align 8
  %16 = tail call noalias dereferenceable_or_null(72) ptr @wmem_alloc0(ptr noundef %15, i64 noundef 72) #13
  %17 = getelementptr inbounds nuw i8, ptr %16, i64 24
  store i32 -1, ptr %17, align 8
  %18 = getelementptr inbounds nuw i8, ptr %16, i64 56
  store i8 -1, ptr %18, align 8
  %19 = load ptr, ptr %10, align 8
  %20 = load i32, ptr @proto_ngap, align 4
  tail call void @p_add_proto_data(ptr noundef %19, ptr noundef %9, i32 noundef %20, i32 noundef 0, ptr noundef %16)
  br label %ngap_get_private_data.exit

ngap_get_private_data.exit:                       ; preds = %5, %14
  %.0.i = phi ptr [ %13, %5 ], [ %16, %14 ]
  %21 = getelementptr inbounds nuw i8, ptr %.0.i, i64 52
  store i32 8, ptr %21, align 4
  %22 = load ptr, ptr %8, align 8
  %23 = getelementptr inbounds nuw i8, ptr %22, i64 408
  %24 = load ptr, ptr %23, align 8
  %25 = tail call noalias dereferenceable_or_null(8) ptr @wmem_alloc0(ptr noundef %24, i64 noundef 8) #13
  %26 = getelementptr inbounds nuw i8, ptr %.0.i, i64 40
  store ptr %25, ptr %26, align 8
  %27 = load i32, ptr @ett_ngap_TAI, align 4
  %28 = tail call i32 @dissect_per_sequence(ptr noundef %0, i32 noundef %1, ptr noundef %2, ptr noundef %3, i32 noundef %4, i32 noundef %27, ptr noundef nonnull @TAI_sequence)
  %29 = load ptr, ptr %8, align 8
  %30 = getelementptr inbounds nuw i8, ptr %29, i64 80
  %31 = load ptr, ptr %30, align 8
  %32 = getelementptr inbounds nuw i8, ptr %31, i64 57
  %33 = load i16, ptr %32, align 1
  %34 = and i16 %33, 8
  %.not = icmp eq i16 %34, 0
  br i1 %.not, label %35, label %72

35:                                               ; preds = %ngap_get_private_data.exit
  %36 = load ptr, ptr %.0.i, align 8
  %.not22 = icmp eq ptr %36, null
  br i1 %.not22, label %72, label %37

37:                                               ; preds = %35
  %38 = getelementptr inbounds nuw i8, ptr %.0.i, i64 20
  %39 = load i32, ptr %38, align 4
  %40 = icmp eq i32 %39, 0
  br i1 %40, label %41, label %72

41:                                               ; preds = %37
  %42 = getelementptr inbounds nuw i8, ptr %.0.i, i64 8
  %43 = load i32, ptr %42, align 8
  %44 = icmp eq i32 %43, 15
  br i1 %44, label %45, label %72

45:                                               ; preds = %41
  call void @llvm.lifetime.start.p0(i64 8, ptr nonnull %6) #12
  %46 = load ptr, ptr %26, align 8
  %47 = load i32, ptr %46, align 4
  %48 = shl i32 %47, 24
  %49 = getelementptr inbounds nuw i8, ptr %46, i64 4
  %50 = load i32, ptr %49, align 4
  %51 = or i32 %48, %50
  %52 = zext i32 %51 to i64
  store i64 %52, ptr %6, align 8
  %53 = getelementptr inbounds nuw i8, ptr %36, i64 64
  %54 = load ptr, ptr %53, align 8
  %55 = call ptr @wmem_map_lookup(ptr noundef %54, ptr noundef nonnull %6)
  %.not23 = icmp eq ptr %55, null
  br i1 %.not23, label %71, label %56

56:                                               ; preds = %45
  call void @llvm.lifetime.start.p0(i64 48, ptr nonnull %7) #12
  %57 = call ptr @wmem_file_scope()
  %58 = call noalias dereferenceable_or_null(4) ptr @wmem_alloc(ptr noundef %57, i64 noundef 4) #13
  %59 = getelementptr inbounds nuw i8, ptr %.0.i, i64 48
  %60 = load i32, ptr %59, align 8
  store i32 %60, ptr %58, align 4
  store i32 1, ptr %7, align 16
  %61 = getelementptr inbounds nuw i8, ptr %7, i64 8
  store ptr %58, ptr %61, align 8
  %62 = getelementptr inbounds nuw i8, ptr %7, i64 16
  store i32 1, ptr %62, align 16
  %63 = load ptr, ptr %8, align 8
  %64 = getelementptr inbounds nuw i8, ptr %63, i64 20
  %65 = getelementptr inbounds nuw i8, ptr %7, i64 24
  store ptr %64, ptr %65, align 8
  %66 = getelementptr inbounds nuw i8, ptr %7, i64 32
  store i32 0, ptr %66, align 16
  %67 = getelementptr inbounds nuw i8, ptr %7, i64 40
  store ptr null, ptr %67, align 8
  %68 = load ptr, ptr %.0.i, align 8
  %69 = getelementptr inbounds nuw i8, ptr %68, i64 72
  %70 = load ptr, ptr %69, align 8
  call void @wmem_tree_insert32_array(ptr noundef %70, ptr noundef nonnull %7, ptr noundef %58)
  call void @llvm.lifetime.end.p0(i64 48, ptr nonnull %7) #12
  br label %71

71:                                               ; preds = %56, %45
  call void @llvm.lifetime.end.p0(i64 8, ptr nonnull %6) #12
  br label %72

72:                                               ; preds = %71, %41, %37, %35, %ngap_get_private_data.exit
  ret i32 %28
}